(dp0
S'arts'
p1
(dp2
S'oldest'
p3
V20120913
p4
sS'newest'
p5
V20140418
p6
ssS'fashion'
p7
(dp8
g3
V20080301
p9
sg5
V20140305
p10
ssS'business'
p11
(dp12
g3
V20140317
p13
sg5
V20140427
p14
ssS'science'
p15
(dp16
g3
V20130604
p17
sg5
V20140427
p18
ssS'national'
p19
(dp20
g3
V20140217
p21
sg5
V20140427
p22
ssS'foreign'
p23
(dp24
g3
V20140227
p25
sg5
V20140427
p26
ssS'health'
p27
(dp28
g3
V20051212
p29
sg5
V20140426
p30
ssS'politics'
p31
(dp32
g3
V20120709
p33
sg5
V20140314
p34
ssS'sports'
p35
(dp36
g3
V20140226
p37
sg5
V20140427
p38
ssS'technology'
p39
(dp40
g3
V20051201
p41
sg5
V20140426
p42
ssS'travel'
p43
(dp44
g3
V20051209
p45
sg5
V20140427
p46
ss.